target datalayout = "e-m:e-p270:32:32-p271:32:32-p272:64:64-i64:64-i128:128-f80:128-n8:16:32:64-S128"
target triple = "x86_64-pc-linux-gnu"

@LZ4F_getBlockSize.blockSizes = internal constant [4 x i64] [i64 65536, i64 262144, i64 1048576, i64 4194304], align 16

; Function Attrs: nounwind uwtable
define internal i64 @LZ4F_returnErrorCode(i32 noundef %0) #0 {
  %2 = alloca i32, align 4
  store i32 %0, ptr %2, align 4, !tbaa !10
  %3 = load i32, ptr %2, align 4, !tbaa !10
  %4 = zext i32 %3 to i64
  %5 = sub nsw i64 0, %4
  ret i64 %5
}

; Function Attrs: nounwind uwtable
define i64 @LZ4F_getBlockSize(i32 noundef %0) #0 {
  %2 = alloca i64, align 8
  %3 = alloca i32, align 4
  %4 = alloca i32, align 4
  store i32 %0, ptr %3, align 4, !tbaa !10
  %5 = load i32, ptr %3, align 4, !tbaa !10
  %6 = icmp eq i32 %5, 0
  br i1 %6, label %7, label %8

7:                                                ; preds = %1
  store i32 4, ptr %3, align 4, !tbaa !10
  br label %8

8:                                                ; preds = %7, %1
  %9 = load i32, ptr %3, align 4, !tbaa !10
  %10 = icmp ult i32 %9, 4
  br i1 %10, label %14, label %11

11:                                               ; preds = %8
  %12 = load i32, ptr %3, align 4, !tbaa !10
  %13 = icmp ugt i32 %12, 7
  br i1 %13, label %14, label %16

14:                                               ; preds = %11, %8
  %15 = call i64 @LZ4F_returnErrorCode(i32 noundef 2)
  store i64 %15, ptr %2, align 8
  br label %23

16:                                               ; preds = %11
  call void @llvm.lifetime.start.p0(i64 4, ptr %4) #8
  %17 = load i32, ptr %3, align 4, !tbaa !10
  %18 = sub nsw i32 %17, 4
  store i32 %18, ptr %4, align 4, !tbaa !10
  %19 = load i32, ptr %4, align 4, !tbaa !10
  %20 = sext i32 %19 to i64
  %21 = getelementptr inbounds [4 x i64], ptr @LZ4F_getBlockSize.blockSizes, i64 0, i64 %20
  %22 = load i64, ptr %21, align 8, !tbaa !3
  store i64 %22, ptr %2, align 8
  call void @llvm.lifetime.end.p0(i64 4, ptr %4) #8
  br label %23

23:                                               ; preds = %16, %14
  %24 = load i64, ptr %2, align 8
  ret i64 %24
}