; Function Attrs: mustprogress nofree norecurse nosync nounwind willreturn memory(none) uwtable
define i64 @LZ4F_getBlockSize(i32 noundef %0) local_unnamed_addr #0 {
  %2 = icmp eq i32 %0, 0
  %spec.store.select = select i1 %2, i32 4, i32 %0
  %3 = and i32 %spec.store.select, -4
  %or.cond.not = icmp eq i32 %3, 4
  br i1 %or.cond.not, label %4, label %9

4:                                                ; preds = %1
  %5 = add nsw i32 %spec.store.select, -4
  %6 = zext nneg i32 %5 to i64
  %7 = getelementptr inbounds nuw [4 x i64], ptr @LZ4F_getBlockSize.blockSizes, i64 0, i64 %6
  %8 = load i64, ptr %7, align 8, !tbaa !8
  br label %9

9:                                                ; preds = %1, %4
  %.0 = phi i64 [ %8, %4 ], [ -2, %1 ]
  ret i64 %.0
}